target datalayout = "e-m:e-p270:32:32-p271:32:32-p272:64:64-i64:64-i128:128-f80:128-n8:16:32:64-S128"
target triple = "x86_64-pc-linux-gnu"

%"class.std::__cxx11::basic_string" = type { %"struct.std::__cxx11::basic_string<char>::_Alloc_hider", i64, %union.anon }
%"struct.std::__cxx11::basic_string<char>::_Alloc_hider" = type { ptr }
%union.anon = type { i64, [8 x i8] }
%"class.nix::Config" = type { %"class.nix::AbstractConfig", %"class.std::map.7" }
%"class.nix::AbstractConfig" = type { ptr, %"class.std::map" }
%"class.std::map" = type { %"class.std::_Rb_tree.3" }
%"class.std::_Rb_tree.3" = type { %"struct.std::_Rb_tree<std::__cxx11::basic_string<char>, std::pair<const std::__cxx11::basic_string<char>, std::__cxx11::basic_string<char>>, std::_Select1st<std::pair<const std::__cxx11::basic_string<char>, std::__cxx11::basic_string<char>>>, std::less<std::__cxx11::basic_string<char>>>::_Rb_tree_impl" }
%"struct.std::_Rb_tree<std::__cxx11::basic_string<char>, std::pair<const std::__cxx11::basic_string<char>, std::__cxx11::basic_string<char>>, std::_Select1st<std::pair<const std::__cxx11::basic_string<char>, std::__cxx11::basic_string<char>>>, std::less<std::__cxx11::basic_string<char>>>::_Rb_tree_impl" = type { %"struct.std::_Rb_tree_key_compare", %"struct.std::_Rb_tree_header" }
%"struct.std::_Rb_tree_key_compare" = type { %"struct.std::less" }
%"struct.std::less" = type { i8 }
%"struct.std::_Rb_tree_header" = type { %"struct.std::_Rb_tree_node_base", i64 }
%"struct.std::_Rb_tree_node_base" = type { i32, ptr, ptr, ptr }
%"class.std::map.7" = type { %"class.std::_Rb_tree.8" }
%"class.std::_Rb_tree.8" = type { %"struct.std::_Rb_tree<std::__cxx11::basic_string<char>, std::pair<const std::__cxx11::basic_string<char>, nix::Config::SettingData>, std::_Select1st<std::pair<const std::__cxx11::basic_string<char>, nix::Config::SettingData>>, std::less<std::__cxx11::basic_string<char>>>::_Rb_tree_impl" }
%"struct.std::_Rb_tree<std::__cxx11::basic_string<char>, std::pair<const std::__cxx11::basic_string<char>, nix::Config::SettingData>, std::_Select1st<std::pair<const std::__cxx11::basic_string<char>, nix::Config::SettingData>>, std::less<std::__cxx11::basic_string<char>>>::_Rb_tree_impl" = type { %"struct.std::_Rb_tree_key_compare", %"struct.std::_Rb_tree_header" }
%"class.nix::AbstractSetting" = type { ptr, %"class.std::__cxx11::basic_string", %"class.std::__cxx11::basic_string", %"class.std::set", i32, i8, [3 x i8], %"class.std::optional" }
%"class.std::set" = type { %"class.std::_Rb_tree" }
%"class.std::_Rb_tree" = type { %"struct.std::_Rb_tree<std::__cxx11::basic_string<char>, std::__cxx11::basic_string<char>, std::_Identity<std::__cxx11::basic_string<char>>, std::less<std::__cxx11::basic_string<char>>>::_Rb_tree_impl" }
%"struct.std::_Rb_tree<std::__cxx11::basic_string<char>, std::__cxx11::basic_string<char>, std::_Identity<std::__cxx11::basic_string<char>>, std::less<std::__cxx11::basic_string<char>>>::_Rb_tree_impl" = type { %"struct.std::_Rb_tree_key_compare", %"struct.std::_Rb_tree_header" }
%"class.std::optional" = type { %"struct.std::_Optional_base" }
%"struct.std::_Optional_base" = type { %"struct.std::_Optional_payload" }
%"struct.std::_Optional_payload" = type { %"struct.std::_Optional_payload_base.base", [3 x i8] }
%"struct.std::_Optional_payload_base.base" = type <{ %"union.std::_Optional_payload_base<nix::ExperimentalFeature>::_Storage", i8 }>
%"union.std::_Optional_payload_base<nix::ExperimentalFeature>::_Storage" = type { i32 }
%"class.nix::OptionalPathSetting" = type { %"class.nix::BaseSetting.base.33", [7 x i8] }
%"class.nix::BaseSetting.base.33" = type <{ %"class.nix::AbstractSetting", %"class.std::optional.23", %"class.std::optional.23", i8 }>
%"class.std::optional.23" = type { %"struct.std::_Optional_base.24" }
%"struct.std::_Optional_base.24" = type { %"struct.std::_Optional_payload.26" }
%"struct.std::_Optional_payload.26" = type { %"struct.std::_Optional_payload.base.30", [7 x i8] }
%"struct.std::_Optional_payload.base.30" = type { %"struct.std::_Optional_payload_base.base.29" }
%"struct.std::_Optional_payload_base.base.29" = type <{ %"union.std::_Optional_payload_base<std::__cxx11::basic_string<char>>::_Storage", i8 }>
%"union.std::_Optional_payload_base<std::__cxx11::basic_string<char>>::_Storage" = type { %"class.std::__cxx11::basic_string" }
%"class.nix::Setting.18" = type { %"class.nix::BaseSetting.base.20", [7 x i8] }
%"class.nix::BaseSetting.base.20" = type <{ %"class.nix::AbstractSetting", %"class.std::set", %"class.std::set", i8 }>
%"class.nix::Setting" = type { %"class.nix::BaseSetting.base", [5 x i8] }
%"class.nix::BaseSetting.base" = type <{ %"class.nix::AbstractSetting", i8, i8, i8 }>
%"class.nix::BaseSetting.base.13" = type <{ %"class.nix::AbstractSetting", %"class.std::__cxx11::basic_string", %"class.std::__cxx11::basic_string", i8 }>
%"struct.nix::LocalFSStoreConfig.base" = type { ptr, %"class.nix::OptionalPathSetting", %"class.nix::PathSetting", %"class.nix::PathSetting", %"class.nix::PathSetting" }
%"class.nix::PathSetting" = type { %"class.nix::BaseSetting.base.13", [7 x i8] }
%"struct.nix::StoreConfig" = type { %"struct.nix::StoreDirConfig", %"class.nix::Setting.14", %"class.nix::Setting", %"class.nix::Setting.14", %"class.nix::Setting", %"class.nix::Setting.18" }
%"struct.nix::StoreDirConfig" = type { %"class.nix::Config", %"class.nix::PathSetting", %"class.std::__cxx11::basic_string" }
%"class.nix::Setting.14" = type { %"class.nix::BaseSetting.base.16", [7 x i8] }
%"class.nix::BaseSetting.base.16" = type <{ %"class.nix::AbstractSetting", i32, i32, i8 }>
%"struct.nix::LocalStoreConfig" = type { ptr, %"class.nix::Setting", %"class.nix::Setting", %"struct.nix::LocalFSStoreConfig.base", %"struct.nix::StoreConfig" }
%"class.nix::BaseSetting" = type <{ %"class.nix::AbstractSetting", i8, i8, i8, [5 x i8] }>

; Function Attrs: mustprogress nounwind uwtable
define linkonce_odr noundef nonnull align 1 dereferenceable(1) ptr @_ZN3nix11BaseSettingIbEcvRbEv(ptr noundef nonnull align 8 dereferenceable(139) %0) #2 comdat align 2 {
  %2 = alloca ptr, align 8
  store ptr %0, ptr %2, align 8
  %3 = load ptr, ptr %2, align 8
  %4 = getelementptr inbounds %"class.nix::BaseSetting", ptr %3, i32 0, i32 1
  ret ptr %4
}

; Function Attrs: mustprogress uwtable
define noundef zeroext i1 @_ZN3nix10LocalStore22realisationIsUntrustedERKNS_11RealisationE(ptr noundef nonnull align 8 dereferenceable(504) %0, ptr noundef nonnull align 8 dereferenceable(240) %1) unnamed_addr #5 align 2 {
  %3 = alloca ptr, align 8
  %4 = alloca ptr, align 8
  store ptr %0, ptr %3, align 8
  store ptr %1, ptr %4, align 8
  %5 = load ptr, ptr %3, align 8
  %6 = load ptr, ptr %5, align 8
  %7 = getelementptr i8, ptr %6, i64 -152
  %8 = load i64, ptr %7, align 8
  %9 = getelementptr inbounds i8, ptr %5, i64 %8
  %10 = getelementptr inbounds %"struct.nix::LocalStoreConfig", ptr %9, i32 0, i32 1
  %11 = call noundef nonnull align 1 dereferenceable(1) ptr @_ZN3nix11BaseSettingIbEcvRbEv(ptr noundef nonnull align 8 dereferenceable(139) %10)
  %12 = load i8, ptr %11, align 1
  %13 = trunc i8 %12 to i1
  br i1 %13, label %14, label %20

14:                                               ; preds = %2
  %15 = load ptr, ptr %4, align 8
  %16 = call noundef nonnull align 8 dereferenceable(48) ptr @_ZN3nix10LocalStore13getPublicKeysB5cxx11Ev(ptr noundef nonnull align 8 dereferenceable(504) %5)
  %17 = call noundef i64 @_ZNK3nix11Realisation15checkSignaturesERKSt3mapINSt7__cxx1112basic_stringIcSt11char_traitsIcESaIcEEENS_9PublicKeyESt4lessIS7_ESaISt4pairIKS7_S8_EEE(ptr noundef nonnull align 8 dereferenceable(240) %15, ptr noundef nonnull align 8 dereferenceable(48) %16)
  %18 = icmp ne i64 %17, 0
  %19 = xor i1 %18, true
  br label %20

20:                                               ; preds = %14, %2
  %21 = phi i1 [ false, %2 ], [ %19, %14 ]
  ret i1 %21
}

; Function Attrs: uwtable
define noundef zeroext i1 @_ZTv0_n88_N3nix10LocalStore22realisationIsUntrustedERKNS_11RealisationE(ptr noundef %0, ptr noundef nonnull align 8 dereferenceable(240) %1) unnamed_addr #0 align 2 {
  %3 = alloca ptr, align 8
  %4 = alloca ptr, align 8
  store ptr %0, ptr %3, align 8
  store ptr %1, ptr %4, align 8
  %5 = load ptr, ptr %3, align 8
  %6 = load ptr, ptr %5, align 8
  %7 = getelementptr inbounds i8, ptr %6, i64 -88
  %8 = load i64, ptr %7, align 8
  %9 = getelementptr inbounds i8, ptr %5, i64 %8
  %10 = load ptr, ptr %4, align 8
  %11 = tail call noundef zeroext i1 @_ZN3nix10LocalStore22realisationIsUntrustedERKNS_11RealisationE(ptr noundef nonnull align 8 dereferenceable(504) %9, ptr noundef nonnull align 8 dereferenceable(240) %10)
  ret i1 %11
}