; Function Attrs: uwtable
define noundef zeroext i1 @_ZTv0_n88_N3nix10LocalStore22realisationIsUntrustedERKNS_11RealisationE(ptr noundef %0, ptr noundef nonnull align 8 dereferenceable(240) %1) unnamed_addr #4 align 2 {
  %3 = load ptr, ptr %0, align 8
  %4 = getelementptr inbounds i8, ptr %3, i64 -88
  %5 = load i64, ptr %4, align 8
  %6 = getelementptr inbounds i8, ptr %0, i64 %5
  %7 = load ptr, ptr %6, align 8
  %8 = getelementptr i8, ptr %7, i64 -152
  %9 = load i64, ptr %8, align 8
  %10 = getelementptr inbounds i8, ptr %6, i64 %9
  %11 = getelementptr inbounds i8, ptr %10, i64 144
  %12 = load i8, ptr %11, align 1
  %13 = and i8 %12, 1
  %.not.i = icmp eq i8 %13, 0
  br i1 %.not.i, label %_ZN3nix10LocalStore22realisationIsUntrustedERKNS_11RealisationE.exit, label %14

14:                                               ; preds = %2
  %15 = tail call noundef nonnull align 8 dereferenceable(48) ptr @_ZN3nix10LocalStore13getPublicKeysB5cxx11Ev(ptr noundef nonnull align 8 dereferenceable(504) %6)
  %16 = tail call noundef i64 @_ZNK3nix11Realisation15checkSignaturesERKSt3mapINSt7__cxx1112basic_stringIcSt11char_traitsIcESaIcEEENS_9PublicKeyESt4lessIS7_ESaISt4pairIKS7_S8_EEE(ptr noundef nonnull align 8 dereferenceable(240) %1, ptr noundef nonnull align 8 dereferenceable(48) %15)
  %.not2.i = icmp eq i64 %16, 0
  br label %_ZN3nix10LocalStore22realisationIsUntrustedERKNS_11RealisationE.exit

_ZN3nix10LocalStore22realisationIsUntrustedERKNS_11RealisationE.exit: ; preds = %2, %14
  %17 = phi i1 [ false, %2 ], [ %.not2.i, %14 ]
  ret i1 %17
}